target datalayout = "e-m:e-p270:32:32-p271:32:32-p272:64:64-i64:64-i128:128-f80:128-n8:16:32:64-S128"
target triple = "x86_64-pc-linux-gnu"

%struct.ssl_connection_st = type { %struct.ssl_st, ptr, i32, ptr, ptr, ptr, i32, ptr, i32, i32, i32, i32, %struct.OSSL_TIME, %struct.OSSL_TIME, %struct.ossl_statem_st, i32, ptr, ptr, i64, i64, i64, %struct.ossl_quic_tls_callbacks_st, ptr, ptr, %struct.anon, ptr, ptr, ptr, i32, ptr, %struct.ssl_dane_st, ptr, ptr, ptr, ptr, i32, [64 x i8], [64 x i8], [64 x i8], [64 x i8], [64 x i8], [64 x i8], [64 x i8], [64 x i8], [64 x i8], [64 x i8], [64 x i8], [64 x i8], ptr, [64 x i8], i64, i32, i64, [32 x i8], ptr, ptr, ptr, i64, ptr, [32 x i8], i64, i32, ptr, ptr, i32, i32, ptr, ptr, ptr, ptr, ptr, i64, ptr, ptr, i64, i32, i32, i32, i64, i32, i32, i64, i64, i64, %struct.anon.1, ptr, i32, ptr, ptr, ptr, i32, ptr, ptr, ptr, i32, i32, i32, i32, ptr, i64, i32, ptr, %struct.srp_ctx_st, ptr, %struct.record_layer_st, ptr, ptr, ptr, ptr, i64, i32, i32, i32, i64, i64, i64, ptr, ptr, ptr, ptr, ptr, i64, ptr, i64, ptr, i64 }
%struct.ssl_st = type { i32, ptr, ptr, ptr, %struct.CRYPTO_REF_COUNT, ptr, %struct.crypto_ex_data_st }
%struct.CRYPTO_REF_COUNT = type { i32 }
%struct.crypto_ex_data_st = type { ptr, ptr }
%struct.OSSL_TIME = type { i64 }
%struct.ossl_statem_st = type { i32, i32, i32, i32, i32, i32, i32, i32, i32, i32, i32, i32, i32, ptr, ptr, ptr, i8 }
%struct.ossl_quic_tls_callbacks_st = type { ptr, ptr, ptr, ptr, ptr, ptr }
%struct.anon = type { i64, [32 x i8], [32 x i8], ptr, ptr, i32, i32, i32, i32, [2 x i8], i32, i32, i32, i32, %struct.anon.0, [64 x i8], i64, [64 x i8], i64, i32, i32, ptr, i64, ptr, i64, i32, i8, i8, i16, ptr, i16 }
%struct.anon.0 = type { [128 x i8], i64, [128 x i8], i64, i64, i32, ptr, ptr, [4 x ptr], [4 x i16], i64, i32, ptr, i64, ptr, i64, ptr, ptr, ptr, i32, i64, ptr, i32, ptr, i64, ptr, i64, ptr, i64, ptr, ptr, ptr, ptr, i64, i64, ptr, ptr, i32, i32, i32, i32 }
%struct.ssl_dane_st = type { ptr, ptr, ptr, ptr, ptr, i32, i32, i32, i64 }
%struct.anon.1 = type { [29 x i8], ptr, ptr, ptr, i32, ptr, i16, i32, %struct.anon.2, i32, i32, i64, ptr, i64, ptr, i64, ptr, i64, ptr, i64, ptr, i64, ptr, ptr, ptr, ptr, ptr, ptr, ptr, i64, ptr, i64, i32, i32, i32, i32, ptr, i64, i32, i8, i32, [4 x i32], i32, i8, i8, i8, i8 }
%struct.anon.2 = type { ptr, ptr, ptr, i64 }
%struct.srp_ctx_st = type { ptr, ptr, ptr, ptr, ptr, ptr, ptr, ptr, ptr, ptr, ptr, ptr, ptr, ptr, i32, i64 }
%struct.record_layer_st = type { ptr, ptr, ptr, ptr, ptr, ptr, ptr, ptr, i64, i32, i64, [4 x i8], i64, i64, i8, ptr, i32, ptr, ptr, ptr, i64, i64, i64, i64, [32 x %struct.tls_record_st] }
%struct.tls_record_st = type { ptr, i32, i8, ptr, ptr, i64, i64, i16, [8 x i8] }
%struct.CLIENTHELLO_MSG = type { i32, i32, [32 x i8], i64, [32 x i8], i64, [255 x i8], %struct.PACKET, i64, [255 x i8], %struct.PACKET, i64, ptr }
%struct.PACKET = type { ptr, i64 }
%struct.raw_extension_st = type { %struct.PACKET, i32, i32, i32, i64 }

; Function Attrs: nounwind uwtable
define i32 @SSL_client_hello_get_extension_order(ptr noundef %0, ptr noundef %1, ptr noundef %2) #0 {
  %4 = alloca i32, align 4
  %5 = alloca ptr, align 8
  %6 = alloca ptr, align 8
  %7 = alloca ptr, align 8
  %8 = alloca ptr, align 8
  %9 = alloca i64, align 8
  %10 = alloca i64, align 8
  %11 = alloca ptr, align 8
  %12 = alloca i32, align 4
  store ptr %0, ptr %5, align 8, !tbaa !16
  store ptr %1, ptr %6, align 8, !tbaa !579
  store ptr %2, ptr %7, align 8, !tbaa !12
  call void @llvm.lifetime.start.p0(i64 8, ptr %8) #9
  call void @llvm.lifetime.start.p0(i64 8, ptr %9) #9
  store i64 0, ptr %9, align 8, !tbaa !10
  call void @llvm.lifetime.start.p0(i64 8, ptr %10) #9
  call void @llvm.lifetime.start.p0(i64 8, ptr %11) #9
  %13 = load ptr, ptr %5, align 8, !tbaa !16
  %14 = icmp eq ptr %13, null
  br i1 %14, label %15, label %16

15:                                               ; preds = %3
  br label %37

16:                                               ; preds = %3
  %17 = load ptr, ptr %5, align 8, !tbaa !16
  %18 = getelementptr inbounds nuw %struct.ssl_st, ptr %17, i32 0, i32 0
  %19 = load i32, ptr %18, align 8, !tbaa !29
  %20 = icmp eq i32 %19, 0
  br i1 %20, label %21, label %23

21:                                               ; preds = %16
  %22 = load ptr, ptr %5, align 8, !tbaa !16
  br label %35

23:                                               ; preds = %16
  %24 = load ptr, ptr %5, align 8, !tbaa !16
  %25 = getelementptr inbounds nuw %struct.ssl_st, ptr %24, i32 0, i32 0
  %26 = load i32, ptr %25, align 8, !tbaa !29
  %27 = and i32 %26, 128
  %28 = icmp ne i32 %27, 0
  br i1 %28, label %29, label %32

29:                                               ; preds = %23
  %30 = load ptr, ptr %5, align 8, !tbaa !16
  %31 = call ptr @ossl_quic_obj_get0_handshake_layer(ptr noundef %30)
  br label %33

32:                                               ; preds = %23
  br label %33

33:                                               ; preds = %32, %29
  %34 = phi ptr [ %31, %29 ], [ null, %32 ]
  br label %35

35:                                               ; preds = %33, %21
  %36 = phi ptr [ %22, %21 ], [ %34, %33 ]
  br label %37

37:                                               ; preds = %35, %15
  %38 = phi ptr [ null, %15 ], [ %36, %35 ]
  store ptr %38, ptr %11, align 8, !tbaa !3
  %39 = load ptr, ptr %11, align 8, !tbaa !3
  %40 = icmp eq ptr %39, null
  br i1 %40, label %41, label %42

41:                                               ; preds = %37
  store i32 0, ptr %4, align 4
  store i32 1, ptr %12, align 4
  br label %141

42:                                               ; preds = %37
  %43 = load ptr, ptr %11, align 8, !tbaa !3
  %44 = getelementptr inbounds nuw %struct.ssl_connection_st, ptr %43, i32 0, i32 85
  %45 = load ptr, ptr %44, align 8, !tbaa !376
  %46 = icmp eq ptr %45, null
  br i1 %46, label %50, label %47

47:                                               ; preds = %42
  %48 = load ptr, ptr %7, align 8, !tbaa !12
  %49 = icmp eq ptr %48, null
  br i1 %49, label %50, label %51

50:                                               ; preds = %47, %42
  store i32 0, ptr %4, align 4
  store i32 1, ptr %12, align 4
  br label %141

51:                                               ; preds = %47
  store i64 0, ptr %10, align 8, !tbaa !10
  br label %52

52:                                               ; preds = %76, %51
  %53 = load i64, ptr %10, align 8, !tbaa !10
  %54 = load ptr, ptr %11, align 8, !tbaa !3
  %55 = getelementptr inbounds nuw %struct.ssl_connection_st, ptr %54, i32 0, i32 85
  %56 = load ptr, ptr %55, align 8, !tbaa !376
  %57 = getelementptr inbounds nuw %struct.CLIENTHELLO_MSG, ptr %56, i32 0, i32 11
  %58 = load i64, ptr %57, align 8, !tbaa !571
  %59 = icmp ult i64 %53, %58
  br i1 %59, label %60, label %79

60:                                               ; preds = %52
  %61 = load ptr, ptr %11, align 8, !tbaa !3
  %62 = getelementptr inbounds nuw %struct.ssl_connection_st, ptr %61, i32 0, i32 85
  %63 = load ptr, ptr %62, align 8, !tbaa !376
  %64 = getelementptr inbounds nuw %struct.CLIENTHELLO_MSG, ptr %63, i32 0, i32 12
  %65 = load ptr, ptr %64, align 8, !tbaa !377
  %66 = load i64, ptr %10, align 8, !tbaa !10
  %67 = getelementptr inbounds nuw %struct.raw_extension_st, ptr %65, i64 %66
  store ptr %67, ptr %8, align 8, !tbaa !572
  %68 = load ptr, ptr %8, align 8, !tbaa !572
  %69 = getelementptr inbounds nuw %struct.raw_extension_st, ptr %68, i32 0, i32 1
  %70 = load i32, ptr %69, align 8, !tbaa !573
  %71 = icmp ne i32 %70, 0
  br i1 %71, label %72, label %75

72:                                               ; preds = %60
  %73 = load i64, ptr %9, align 8, !tbaa !10
  %74 = add i64 %73, 1
  store i64 %74, ptr %9, align 8, !tbaa !10
  br label %75

75:                                               ; preds = %72, %60
  br label %76

76:                                               ; preds = %75
  %77 = load i64, ptr %10, align 8, !tbaa !10
  %78 = add i64 %77, 1
  store i64 %78, ptr %10, align 8, !tbaa !10
  br label %52, !llvm.loop !580

79:                                               ; preds = %52
  %80 = load i64, ptr %9, align 8, !tbaa !10
  %81 = icmp eq i64 %80, 0
  br i1 %81, label %82, label %84

82:                                               ; preds = %79
  %83 = load ptr, ptr %7, align 8, !tbaa !12
  store i64 0, ptr %83, align 8, !tbaa !10
  store i32 1, ptr %4, align 4
  store i32 1, ptr %12, align 4
  br label %141

84:                                               ; preds = %79
  %85 = load ptr, ptr %6, align 8, !tbaa !579
  %86 = icmp eq ptr %85, null
  br i1 %86, label %87, label %90

87:                                               ; preds = %84
  %88 = load i64, ptr %9, align 8, !tbaa !10
  %89 = load ptr, ptr %7, align 8, !tbaa !12
  store i64 %88, ptr %89, align 8, !tbaa !10
  store i32 1, ptr %4, align 4
  store i32 1, ptr %12, align 4
  br label %141

90:                                               ; preds = %84
  %91 = load ptr, ptr %7, align 8, !tbaa !12
  %92 = load i64, ptr %91, align 8, !tbaa !10
  %93 = load i64, ptr %9, align 8, !tbaa !10
  %94 = icmp ult i64 %92, %93
  br i1 %94, label %95, label %96

95:                                               ; preds = %90
  store i32 0, ptr %4, align 4
  store i32 1, ptr %12, align 4
  br label %141

96:                                               ; preds = %90
  store i64 0, ptr %10, align 8, !tbaa !10
  br label %97

97:                                               ; preds = %135, %96
  %98 = load i64, ptr %10, align 8, !tbaa !10
  %99 = load ptr, ptr %11, align 8, !tbaa !3
  %100 = getelementptr inbounds nuw %struct.ssl_connection_st, ptr %99, i32 0, i32 85
  %101 = load ptr, ptr %100, align 8, !tbaa !376
  %102 = getelementptr inbounds nuw %struct.CLIENTHELLO_MSG, ptr %101, i32 0, i32 11
  %103 = load i64, ptr %102, align 8, !tbaa !571
  %104 = icmp ult i64 %98, %103
  br i1 %104, label %105, label %138

105:                                              ; preds = %97
  %106 = load ptr, ptr %11, align 8, !tbaa !3
  %107 = getelementptr inbounds nuw %struct.ssl_connection_st, ptr %106, i32 0, i32 85
  %108 = load ptr, ptr %107, align 8, !tbaa !376
  %109 = getelementptr inbounds nuw %struct.CLIENTHELLO_MSG, ptr %108, i32 0, i32 12
  %110 = load ptr, ptr %109, align 8, !tbaa !377
  %111 = load i64, ptr %10, align 8, !tbaa !10
  %112 = getelementptr inbounds nuw %struct.raw_extension_st, ptr %110, i64 %111
  store ptr %112, ptr %8, align 8, !tbaa !572
  %113 = load ptr, ptr %8, align 8, !tbaa !572
  %114 = getelementptr inbounds nuw %struct.raw_extension_st, ptr %113, i32 0, i32 1
  %115 = load i32, ptr %114, align 8, !tbaa !573
  %116 = icmp ne i32 %115, 0
  br i1 %116, label %117, label %134

117:                                              ; preds = %105
  %118 = load ptr, ptr %8, align 8, !tbaa !572
  %119 = getelementptr inbounds nuw %struct.raw_extension_st, ptr %118, i32 0, i32 4
  %120 = load i64, ptr %119, align 8, !tbaa !576
  %121 = load i64, ptr %9, align 8, !tbaa !10
  %122 = icmp uge i64 %120, %121
  br i1 %122, label %123, label %124

123:                                              ; preds = %117
  store i32 0, ptr %4, align 4
  store i32 1, ptr %12, align 4
  br label %141

124:                                              ; preds = %117
  %125 = load ptr, ptr %8, align 8, !tbaa !572
  %126 = getelementptr inbounds nuw %struct.raw_extension_st, ptr %125, i32 0, i32 3
  %127 = load i32, ptr %126, align 8, !tbaa !577
  %128 = trunc i32 %127 to i16
  %129 = load ptr, ptr %6, align 8, !tbaa !579
  %130 = load ptr, ptr %8, align 8, !tbaa !572
  %131 = getelementptr inbounds nuw %struct.raw_extension_st, ptr %130, i32 0, i32 4
  %132 = load i64, ptr %131, align 8, !tbaa !576
  %133 = getelementptr inbounds nuw i16, ptr %129, i64 %132
  store i16 %128, ptr %133, align 2, !tbaa !581
  br label %134

134:                                              ; preds = %124, %105
  br label %135

135:                                              ; preds = %134
  %136 = load i64, ptr %10, align 8, !tbaa !10
  %137 = add i64 %136, 1
  store i64 %137, ptr %10, align 8, !tbaa !10
  br label %97, !llvm.loop !582

138:                                              ; preds = %97
  %139 = load i64, ptr %9, align 8, !tbaa !10
  %140 = load ptr, ptr %7, align 8, !tbaa !12
  store i64 %139, ptr %140, align 8, !tbaa !10
  store i32 1, ptr %4, align 4
  store i32 1, ptr %12, align 4
  br label %141

141:                                              ; preds = %138, %123, %95, %87, %82, %50, %41
  call void @llvm.lifetime.end.p0(i64 8, ptr %11) #9
  call void @llvm.lifetime.end.p0(i64 8, ptr %10) #9
  call void @llvm.lifetime.end.p0(i64 8, ptr %9) #9
  call void @llvm.lifetime.end.p0(i64 8, ptr %8) #9
  %142 = load i32, ptr %4, align 4
  ret i32 %142
}