; Function Attrs: nounwind uwtable
define range(i32 0, 2) i32 @SSL_client_hello_get_extension_order(ptr noundef %0, ptr noundef writeonly captures(address_is_null) %1, ptr noundef captures(address_is_null) %2) local_unnamed_addr #0 {
  %4 = icmp eq ptr %0, null
  br i1 %4, label %.thread, label %5

5:                                                ; preds = %3
  %6 = load i32, ptr %0, align 8, !tbaa !19
  %7 = icmp eq i32 %6, 0
  br i1 %7, label %.thread48, label %8

8:                                                ; preds = %5
  %9 = and i32 %6, 128
  %.not = icmp eq i32 %9, 0
  br i1 %.not, label %.thread, label %10

10:                                               ; preds = %8
  %11 = tail call ptr @ossl_quic_obj_get0_handshake_layer(ptr noundef nonnull %0) #20
  %12 = icmp eq ptr %11, null
  br i1 %12, label %.thread, label %.thread48

.thread48:                                        ; preds = %5, %10
  %13 = phi ptr [ %11, %10 ], [ %0, %5 ]
  %14 = getelementptr inbounds nuw i8, ptr %13, i64 2904
  %15 = load ptr, ptr %14, align 8, !tbaa !349
  %16 = icmp eq ptr %15, null
  %17 = icmp eq ptr %2, null
  %or.cond = or i1 %17, %16
  br i1 %or.cond, label %.thread, label %.preheader49

.preheader49:                                     ; preds = %.thread48
  %18 = getelementptr inbounds nuw i8, ptr %15, i64 640
  %19 = load i64, ptr %18, align 8, !tbaa !499
  %.not56 = icmp eq i64 %19, 0
  br i1 %.not56, label %.thread.sink.split, label %.lr.ph

.lr.ph:                                           ; preds = %.preheader49
  %20 = getelementptr inbounds nuw i8, ptr %15, i64 648
  %21 = load ptr, ptr %20, align 8, !tbaa !350
  br label %22

22:                                               ; preds = %.lr.ph, %22
  %.03651 = phi i64 [ 0, %.lr.ph ], [ %26, %22 ]
  %.03750 = phi i64 [ 0, %.lr.ph ], [ %spec.select, %22 ]
  %23 = getelementptr inbounds nuw %struct.raw_extension_st, ptr %21, i64 %.03651, i32 1
  %24 = load i32, ptr %23, align 8, !tbaa !500
  %.not47 = icmp ne i32 %24, 0
  %25 = zext i1 %.not47 to i64
  %spec.select = add i64 %.03750, %25
  %26 = add nuw i64 %.03651, 1
  %exitcond.not = icmp eq i64 %26, %19
  br i1 %exitcond.not, label %._crit_edge, label %22, !llvm.loop !507

._crit_edge:                                      ; preds = %22
  %27 = icmp eq i64 %spec.select, 0
  br i1 %27, label %.thread.sink.split, label %28

28:                                               ; preds = %._crit_edge
  %29 = icmp eq ptr %1, null
  br i1 %29, label %.thread.sink.split, label %30

30:                                               ; preds = %28
  %31 = load i64, ptr %2, align 8, !tbaa !285
  %32 = icmp ult i64 %31, %spec.select
  br i1 %32, label %.thread, label %.lr.ph54

.lr.ph54:                                         ; preds = %30
  %33 = getelementptr inbounds nuw i8, ptr %15, i64 648
  %34 = load ptr, ptr %33, align 8, !tbaa !350
  br label %35

35:                                               ; preds = %.lr.ph54, %47
  %.153 = phi i64 [ 0, %.lr.ph54 ], [ %48, %47 ]
  %36 = getelementptr inbounds nuw %struct.raw_extension_st, ptr %34, i64 %.153
  %37 = getelementptr inbounds nuw i8, ptr %36, i64 16
  %38 = load i32, ptr %37, align 8, !tbaa !500
  %.not45 = icmp eq i32 %38, 0
  br i1 %.not45, label %47, label %39

39:                                               ; preds = %35
  %40 = getelementptr inbounds nuw i8, ptr %36, i64 32
  %41 = load i64, ptr %40, align 8, !tbaa !504
  %.not46 = icmp ult i64 %41, %spec.select
  br i1 %.not46, label %42, label %.thread

42:                                               ; preds = %39
  %43 = getelementptr inbounds nuw i8, ptr %36, i64 24
  %44 = load i32, ptr %43, align 8, !tbaa !505
  %45 = trunc i32 %44 to i16
  %46 = getelementptr inbounds nuw i16, ptr %1, i64 %41
  store i16 %45, ptr %46, align 2, !tbaa !508
  br label %47

47:                                               ; preds = %35, %42
  %48 = add nuw i64 %.153, 1
  %exitcond58.not = icmp eq i64 %48, %19
  br i1 %exitcond58.not, label %.thread.sink.split, label %35, !llvm.loop !509

.thread.sink.split:                               ; preds = %47, %28, %._crit_edge, %.preheader49
  %spec.select.lcssa.sink = phi i64 [ 0, %.preheader49 ], [ 0, %._crit_edge ], [ %spec.select, %28 ], [ %spec.select, %47 ]
  store i64 %spec.select.lcssa.sink, ptr %2, align 8, !tbaa !285
  br label %.thread

.thread:                                          ; preds = %39, %.thread.sink.split, %8, %3, %30, %.thread48, %10
  %.0 = phi i32 [ 0, %10 ], [ 0, %.thread48 ], [ 0, %30 ], [ 0, %3 ], [ 0, %8 ], [ 1, %.thread.sink.split ], [ 0, %39 ]
  ret i32 %.0
}